; Function Attrs: mustprogress nofree norecurse nosync nounwind willreturn memory(read, argmem: readwrite, inaccessiblemem: none) uwtable
define internal fastcc i64 @get_ts64(ptr noundef nonnull captures(none) %0, i32 noundef %1) unnamed_addr #9 {
  %3 = getelementptr i8, ptr %0, i64 16
  %.val = load i32, ptr %3, align 8, !tbaa !252
  %4 = getelementptr i8, ptr %0, i64 20
  %.val5 = load i32, ptr %4, align 4, !tbaa !249
  %5 = sub nsw i32 %.val5, %.val
  %6 = icmp slt i32 %5, %1
  br i1 %6, label %get_bits64.exit, label %7

7:                                                ; preds = %2
  %8 = icmp slt i32 %1, 33
  br i1 %8, label %9, label %46

9:                                                ; preds = %7
  %.not.i.i = icmp eq i32 %1, 0
  br i1 %.not.i.i, label %get_bits_long.exit.i, label %10

10:                                               ; preds = %9
  %11 = icmp slt i32 %1, 26
  %12 = getelementptr inbounds nuw i8, ptr %0, i64 24
  %13 = load i32, ptr %12, align 8, !tbaa !250
  %14 = load ptr, ptr %0, align 8, !tbaa !247
  %15 = lshr i32 %.val, 3
  %16 = zext nneg i32 %15 to i64
  %17 = getelementptr inbounds nuw i8, ptr %14, i64 %16
  %18 = load i32, ptr %17, align 1, !tbaa !9
  %19 = tail call i32 @llvm.bswap.i32(i32 %18)
  %20 = and i32 %.val, 7
  %21 = shl i32 %19, %20
  br i1 %11, label %22, label %27

22:                                               ; preds = %10
  %23 = sub nsw i32 32, %1
  %24 = lshr i32 %21, %23
  %25 = add i32 %.val, %1
  %26 = tail call i32 @llvm.umin.i32(i32 %13, i32 %25)
  store i32 %26, ptr %3, align 8, !tbaa !252
  br label %get_bits_long.exit.i

27:                                               ; preds = %10
  %28 = lshr i32 %21, 16
  %29 = add i32 %.val, 16
  %30 = tail call i32 @llvm.umin.i32(i32 %13, i32 %29)
  store i32 %30, ptr %3, align 8, !tbaa !252
  %31 = add nsw i32 %1, -16
  %32 = shl nuw i32 %28, %31
  %33 = lshr i32 %30, 3
  %34 = zext nneg i32 %33 to i64
  %35 = getelementptr inbounds nuw i8, ptr %14, i64 %34
  %36 = load i32, ptr %35, align 1, !tbaa !9
  %37 = tail call i32 @llvm.bswap.i32(i32 %36)
  %38 = and i32 %30, 7
  %39 = shl i32 %37, %38
  %40 = sub nuw nsw i32 48, %1
  %41 = lshr i32 %39, %40
  %42 = add i32 %30, %31
  %43 = tail call i32 @llvm.umin.i32(i32 %13, i32 %42)
  store i32 %43, ptr %3, align 8, !tbaa !252
  %44 = or i32 %41, %32
  br label %get_bits_long.exit.i

get_bits_long.exit.i:                             ; preds = %27, %22, %9
  %.0.i.i = phi i32 [ %24, %22 ], [ %44, %27 ], [ 0, %9 ]
  %45 = zext i32 %.0.i.i to i64
  br label %get_bits64.exit

46:                                               ; preds = %7
  %47 = add nsw i32 %1, -32
  %48 = icmp samesign ult i32 %47, 26
  %49 = getelementptr inbounds nuw i8, ptr %0, i64 24
  %50 = load i32, ptr %49, align 8, !tbaa !250
  %51 = load ptr, ptr %0, align 8, !tbaa !247
  %52 = lshr i32 %.val, 3
  %53 = zext nneg i32 %52 to i64
  %54 = getelementptr inbounds nuw i8, ptr %51, i64 %53
  %55 = load i32, ptr %54, align 1, !tbaa !9
  %56 = tail call i32 @llvm.bswap.i32(i32 %55)
  %57 = and i32 %.val, 7
  %58 = shl i32 %56, %57
  br i1 %48, label %59, label %64

59:                                               ; preds = %46
  %60 = sub nuw nsw i32 64, %1
  %61 = lshr i32 %58, %60
  %62 = add i32 %.val, %47
  %63 = tail call i32 @llvm.umin.i32(i32 %50, i32 %62)
  br label %get_bits_long.exit10.i

64:                                               ; preds = %46
  %65 = lshr i32 %58, 16
  %66 = add i32 %.val, 16
  %67 = tail call i32 @llvm.umin.i32(i32 %50, i32 %66)
  store i32 %67, ptr %3, align 8, !tbaa !252
  %68 = add nsw i32 %1, -48
  %69 = shl i32 %65, %68
  %70 = lshr i32 %67, 3
  %71 = zext nneg i32 %70 to i64
  %72 = getelementptr inbounds nuw i8, ptr %51, i64 %71
  %73 = load i32, ptr %72, align 1, !tbaa !9
  %74 = tail call i32 @llvm.bswap.i32(i32 %73)
  %75 = and i32 %67, 7
  %76 = shl i32 %74, %75
  %77 = sub nsw i32 80, %1
  %78 = lshr i32 %76, %77
  %79 = add i32 %67, %68
  %80 = tail call i32 @llvm.umin.i32(i32 %50, i32 %79)
  %81 = or i32 %78, %69
  br label %get_bits_long.exit10.i

get_bits_long.exit10.i:                           ; preds = %64, %59
  %.sink.i = phi i32 [ %63, %59 ], [ %80, %64 ]
  %.0.i9.i = phi i32 [ %61, %59 ], [ %81, %64 ]
  store i32 %.sink.i, ptr %3, align 8, !tbaa !252
  %82 = zext i32 %.0.i9.i to i64
  %83 = shl nuw i64 %82, 32
  %84 = lshr i32 %.sink.i, 3
  %85 = zext nneg i32 %84 to i64
  %86 = getelementptr inbounds nuw i8, ptr %51, i64 %85
  %87 = load i32, ptr %86, align 1, !tbaa !9
  %88 = tail call i32 @llvm.bswap.i32(i32 %87)
  %89 = and i32 %.sink.i, 7
  %90 = shl i32 %88, %89
  %91 = and i32 %90, -65536
  %92 = add i32 %.sink.i, 16
  %93 = tail call i32 @llvm.umin.i32(i32 %50, i32 %92)
  store i32 %93, ptr %3, align 8, !tbaa !252
  %94 = lshr i32 %93, 3
  %95 = zext nneg i32 %94 to i64
  %96 = getelementptr inbounds nuw i8, ptr %51, i64 %95
  %97 = load i32, ptr %96, align 1, !tbaa !9
  %98 = tail call i32 @llvm.bswap.i32(i32 %97)
  %99 = and i32 %93, 7
  %100 = shl i32 %98, %99
  %101 = lshr i32 %100, 16
  %102 = add i32 %93, 16
  %103 = tail call i32 @llvm.umin.i32(i32 %50, i32 %102)
  store i32 %103, ptr %3, align 8, !tbaa !252
  %104 = or disjoint i32 %101, %91
  %105 = zext i32 %104 to i64
  %106 = or disjoint i64 %83, %105
  br label %get_bits64.exit

get_bits64.exit:                                  ; preds = %get_bits_long.exit10.i, %get_bits_long.exit.i, %2
  %.0 = phi i64 [ -9223372036854775808, %2 ], [ %45, %get_bits_long.exit.i ], [ %106, %get_bits_long.exit10.i ]
  ret i64 %.0
}